; Function Attrs: mustprogress nounwind uwtable
define internal void @"_ZN9grpc_core14promise_detail15PromiseActivityINS0_4LoopINS0_3SeqIZNS_16BasicMemoryQuota5StartEvE3$_1JZNS4_5StartEvE3$_0ZNS4_5StartEvE3$_2ZNS4_5StartEvE3$_3EEEEENS_22ExecCtxWakeupSchedulerEZNS4_5StartEvE3$_4JEED0Ev"(ptr noundef nonnull align 8 dereferenceable(232) %this) unnamed_addr #3 align 2 personality ptr @__gxx_personality_v0 {
entry:
  %done_.i = getelementptr inbounds i8, ptr %this, i64 72
  %0 = load i8, ptr %done_.i, align 8
  %1 = and i8 %0, 1
  %tobool.not.i = icmp eq i8 %1, 0
  br i1 %tobool.not.i, label %if.then.i, label %do.end.i

if.then.i:                                        ; preds = %entry
  invoke void @gpr_assertion_failed(ptr noundef nonnull @.str.25, i32 noundef 464, ptr noundef nonnull @.str.38) #29
          to label %invoke.cont.i unwind label %terminate.lpad.i

invoke.cont.i:                                    ; preds = %if.then.i
  unreachable

do.end.i:                                         ; preds = %entry
  store ptr getelementptr inbounds ({ [12 x ptr], [6 x ptr] }, ptr @_ZTVN9grpc_core14promise_detail20FreestandingActivityE, i64 0, i32 0, i64 2), ptr %this, align 8
  %add.ptr.i.i = getelementptr inbounds i8, ptr %this, i64 8
  store ptr getelementptr inbounds ({ [12 x ptr], [6 x ptr] }, ptr @_ZTVN9grpc_core14promise_detail20FreestandingActivityE, i64 0, i32 1, i64 2), ptr %add.ptr.i.i, align 8
  %handle_.i.i = getelementptr inbounds i8, ptr %this, i64 32
  %2 = load ptr, ptr %handle_.i.i, align 8
  %tobool.not.i.i = icmp eq ptr %2, null
  br i1 %tobool.not.i.i, label %"_ZN9grpc_core14promise_detail15PromiseActivityINS0_4LoopINS0_3SeqIZNS_16BasicMemoryQuota5StartEvE3$_1JZNS4_5StartEvE3$_0ZNS4_5StartEvE3$_2ZNS4_5StartEvE3$_3EEEEENS_22ExecCtxWakeupSchedulerEZNS4_5StartEvE3$_4JEED2Ev.exit", label %if.then.i.i

if.then.i.i:                                      ; preds = %do.end.i
  invoke void @_ZN9grpc_core14promise_detail20FreestandingActivity10DropHandleEv(ptr noundef nonnull align 8 dereferenceable(40) %this)
          to label %"_ZN9grpc_core14promise_detail15PromiseActivityINS0_4LoopINS0_3SeqIZNS_16BasicMemoryQuota5StartEvE3$_1JZNS4_5StartEvE3$_0ZNS4_5StartEvE3$_2ZNS4_5StartEvE3$_3EEEEENS_22ExecCtxWakeupSchedulerEZNS4_5StartEvE3$_4JEED2Ev.exit" unwind label %terminate.lpad.i.i

terminate.lpad.i.i:                               ; preds = %if.then.i.i
  %3 = landingpad { ptr, i32 }
          catch ptr null
  %4 = extractvalue { ptr, i32 } %3, 0
  tail call void @__clang_call_terminate(ptr %4) #26
  unreachable

terminate.lpad.i:                                 ; preds = %if.then.i
  %5 = landingpad { ptr, i32 }
          catch ptr null
  %6 = extractvalue { ptr, i32 } %5, 0
  tail call void @__clang_call_terminate(ptr %6) #26
  unreachable

"_ZN9grpc_core14promise_detail15PromiseActivityINS0_4LoopINS0_3SeqIZNS_16BasicMemoryQuota5StartEvE3$_1JZNS4_5StartEvE3$_0ZNS4_5StartEvE3$_2ZNS4_5StartEvE3$_3EEEEENS_22ExecCtxWakeupSchedulerEZNS4_5StartEvE3$_4JEED2Ev.exit": ; preds = %do.end.i, %if.then.i.i
  %mu_.i.i = getelementptr inbounds i8, ptr %this, i64 16
  tail call void @_ZN4absl12lts_202308025MutexD1Ev(ptr noundef nonnull align 8 dereferenceable(8) %mu_.i.i) #25
  tail call void @_ZdlPv(ptr noundef nonnull %this) #28
  ret void
}